target datalayout = "e-m:e-p270:32:32-p271:32:32-p272:64:64-i64:64-i128:128-f80:128-n8:16:32:64-S128"
target triple = "x86_64-unknown-linux-gnu"

; Function Attrs: mustprogress uwtable
define noundef nonnull align 8 dereferenceable(64) ptr @_ZNK6icu_7512ChoiceFormat6formatEiRNS_13UnicodeStringERNS_13FieldPositionE(ptr noundef nonnull align 8 dereferenceable(488) %this, i32 noundef %number, ptr noundef nonnull align 8 dereferenceable(64) %appendTo, ptr noundef nonnull align 8 dereferenceable(20) %status) unnamed_addr #1 align 2 {
entry:
  %this.addr = alloca ptr, align 8
  %number.addr = alloca i32, align 4
  %appendTo.addr = alloca ptr, align 8
  %status.addr = alloca ptr, align 8
  store ptr %this, ptr %this.addr, align 8
  store i32 %number, ptr %number.addr, align 4
  store ptr %appendTo, ptr %appendTo.addr, align 8
  store ptr %status, ptr %status.addr, align 8
  %this1 = load ptr, ptr %this.addr, align 8
  %0 = load i32, ptr %number.addr, align 4
  %conv = sitofp i32 %0 to double
  %1 = load ptr, ptr %appendTo.addr, align 8
  %2 = load ptr, ptr %status.addr, align 8
  %vtable = load ptr, ptr %this1, align 8
  %vfn = getelementptr inbounds ptr, ptr %vtable, i64 8
  %3 = load ptr, ptr %vfn, align 8
  %call = call noundef nonnull align 8 dereferenceable(64) ptr %3(ptr noundef nonnull align 8 dereferenceable(488) %this1, double noundef %conv, ptr noundef nonnull align 8 dereferenceable(64) %1, ptr noundef nonnull align 8 dereferenceable(20) %2)
  ret ptr %call
}